target datalayout = "e-m:e-p270:32:32-p271:32:32-p272:64:64-i64:64-i128:128-f80:128-n8:16:32:64-S128"
target triple = "x86_64-pc-linux-gnu"

%struct.TupleTableSlotOps = type { i64, ptr, ptr, ptr, ptr, ptr, ptr, ptr, ptr, ptr, ptr, ptr, ptr }
%struct.IncrementalSortState = type { %struct.ScanState, i8, i64, i8, i64, i32, i64, ptr, ptr, ptr, %struct.IncrementalSortInfo, ptr, ptr, i8, ptr }
%struct.ScanState = type { %struct.PlanState, ptr, ptr, ptr }
%struct.PlanState = type { i32, ptr, ptr, ptr, ptr, ptr, ptr, ptr, ptr, ptr, ptr, ptr, ptr, ptr, ptr, ptr, ptr, ptr, i8, ptr, ptr, ptr, ptr, ptr, i8, i8, i8, i8, i8, i8, i8, i8 }
%struct.IncrementalSortInfo = type { %struct.IncrementalSortGroupInfo, %struct.IncrementalSortGroupInfo }
%struct.IncrementalSortGroupInfo = type { i64, i64, i64, i64, i64, i32 }
%struct.TupleTableSlot = type { i32, i16, i16, ptr, ptr, ptr, ptr, ptr, %struct.ItemPointerData, i32 }
%struct.ItemPointerData = type { %struct.BlockIdData, i16 }
%struct.BlockIdData = type { i16, i16 }

; Function Attrs: inlinehint nounwind uwtable
define internal ptr @ExecClearTuple(ptr noundef %0) #2 {
  %2 = alloca ptr, align 8
  store ptr %0, ptr %2, align 8
  %3 = load ptr, ptr %2, align 8
  %4 = getelementptr inbounds nuw %struct.TupleTableSlot, ptr %3, i32 0, i32 3
  %5 = load ptr, ptr %4, align 8
  %6 = getelementptr inbounds nuw %struct.TupleTableSlotOps, ptr %5, i32 0, i32 3
  %7 = load ptr, ptr %6, align 8
  %8 = load ptr, ptr %2, align 8
  call void %7(ptr noundef %8)
  %9 = load ptr, ptr %2, align 8
  ret ptr %9
}

; Function Attrs: nounwind uwtable
define dso_local void @ExecReScanIncrementalSort(ptr noundef %0) #0 {
  %2 = alloca ptr, align 8
  %3 = alloca ptr, align 8
  store ptr %0, ptr %2, align 8
  call void @llvm.lifetime.start.p0(i64 8, ptr %3) #8
  %4 = load ptr, ptr %2, align 8
  %5 = getelementptr inbounds nuw %struct.PlanState, ptr %4, i32 0, i32 9
  %6 = load ptr, ptr %5, align 8
  store ptr %6, ptr %3, align 8
  %7 = load ptr, ptr %2, align 8
  %8 = getelementptr inbounds nuw %struct.IncrementalSortState, ptr %7, i32 0, i32 0
  %9 = getelementptr inbounds nuw %struct.ScanState, ptr %8, i32 0, i32 0
  %10 = getelementptr inbounds nuw %struct.PlanState, ptr %9, i32 0, i32 15
  %11 = load ptr, ptr %10, align 8
  %12 = call ptr @ExecClearTuple(ptr noundef %11)
  %13 = load ptr, ptr %2, align 8
  %14 = getelementptr inbounds nuw %struct.IncrementalSortState, ptr %13, i32 0, i32 11
  %15 = load ptr, ptr %14, align 8
  %16 = icmp ne ptr %15, null
  br i1 %16, label %17, label %22

17:                                               ; preds = %1
  %18 = load ptr, ptr %2, align 8
  %19 = getelementptr inbounds nuw %struct.IncrementalSortState, ptr %18, i32 0, i32 11
  %20 = load ptr, ptr %19, align 8
  %21 = call ptr @ExecClearTuple(ptr noundef %20)
  br label %22

22:                                               ; preds = %17, %1
  %23 = load ptr, ptr %2, align 8
  %24 = getelementptr inbounds nuw %struct.IncrementalSortState, ptr %23, i32 0, i32 12
  %25 = load ptr, ptr %24, align 8
  %26 = icmp ne ptr %25, null
  br i1 %26, label %27, label %32

27:                                               ; preds = %22
  %28 = load ptr, ptr %2, align 8
  %29 = getelementptr inbounds nuw %struct.IncrementalSortState, ptr %28, i32 0, i32 12
  %30 = load ptr, ptr %29, align 8
  %31 = call ptr @ExecClearTuple(ptr noundef %30)
  br label %32

32:                                               ; preds = %27, %22
  %33 = load ptr, ptr %2, align 8
  %34 = getelementptr inbounds nuw %struct.IncrementalSortState, ptr %33, i32 0, i32 3
  store i8 0, ptr %34, align 8
  %35 = load ptr, ptr %2, align 8
  %36 = getelementptr inbounds nuw %struct.IncrementalSortState, ptr %35, i32 0, i32 6
  store i64 0, ptr %36, align 8
  %37 = load ptr, ptr %2, align 8
  %38 = getelementptr inbounds nuw %struct.IncrementalSortState, ptr %37, i32 0, i32 4
  store i64 0, ptr %38, align 8
  %39 = load ptr, ptr %2, align 8
  %40 = getelementptr inbounds nuw %struct.IncrementalSortState, ptr %39, i32 0, i32 5
  store i32 0, ptr %40, align 8
  %41 = load ptr, ptr %2, align 8
  %42 = getelementptr inbounds nuw %struct.IncrementalSortState, ptr %41, i32 0, i32 7
  %43 = load ptr, ptr %42, align 8
  %44 = icmp ne ptr %43, null
  br i1 %44, label %45, label %49

45:                                               ; preds = %32
  %46 = load ptr, ptr %2, align 8
  %47 = getelementptr inbounds nuw %struct.IncrementalSortState, ptr %46, i32 0, i32 7
  %48 = load ptr, ptr %47, align 8
  call void @tuplesort_reset(ptr noundef %48)
  br label %49

49:                                               ; preds = %45, %32
  %50 = load ptr, ptr %2, align 8
  %51 = getelementptr inbounds nuw %struct.IncrementalSortState, ptr %50, i32 0, i32 8
  %52 = load ptr, ptr %51, align 8
  %53 = icmp ne ptr %52, null
  br i1 %53, label %54, label %58

54:                                               ; preds = %49
  %55 = load ptr, ptr %2, align 8
  %56 = getelementptr inbounds nuw %struct.IncrementalSortState, ptr %55, i32 0, i32 8
  %57 = load ptr, ptr %56, align 8
  call void @tuplesort_reset(ptr noundef %57)
  br label %58

58:                                               ; preds = %54, %49
  %59 = load ptr, ptr %3, align 8
  %60 = getelementptr inbounds nuw %struct.PlanState, ptr %59, i32 0, i32 13
  %61 = load ptr, ptr %60, align 8
  %62 = icmp eq ptr %61, null
  br i1 %62, label %63, label %65

63:                                               ; preds = %58
  %64 = load ptr, ptr %3, align 8
  call void @ExecReScan(ptr noundef %64)
  br label %65

65:                                               ; preds = %63, %58
  call void @llvm.lifetime.end.p0(i64 8, ptr %3) #8
  ret void
}