; Function Attrs: nounwind uwtable
define dso_local void @ExecReScanIncrementalSort(ptr noundef captures(none) initializes((240, 241), (248, 260), (264, 272)) %0) local_unnamed_addr #0 {
  %2 = getelementptr inbounds nuw i8, ptr %0, i64 72
  %3 = load ptr, ptr %2, align 8
  %4 = getelementptr inbounds nuw i8, ptr %0, i64 120
  %5 = load ptr, ptr %4, align 8
  %6 = getelementptr inbounds nuw i8, ptr %5, i64 8
  %7 = load ptr, ptr %6, align 8
  %8 = getelementptr inbounds nuw i8, ptr %7, i64 24
  %9 = load ptr, ptr %8, align 8
  tail call void %9(ptr noundef %5) #8
  %10 = getelementptr inbounds nuw i8, ptr %0, i64 392
  %11 = load ptr, ptr %10, align 8
  %.not = icmp eq ptr %11, null
  br i1 %.not, label %17, label %12

12:                                               ; preds = %1
  %13 = getelementptr inbounds nuw i8, ptr %11, i64 8
  %14 = load ptr, ptr %13, align 8
  %15 = getelementptr inbounds nuw i8, ptr %14, i64 24
  %16 = load ptr, ptr %15, align 8
  tail call void %16(ptr noundef nonnull %11) #8
  br label %17

17:                                               ; preds = %12, %1
  %18 = getelementptr inbounds nuw i8, ptr %0, i64 400
  %19 = load ptr, ptr %18, align 8
  %.not19 = icmp eq ptr %19, null
  br i1 %.not19, label %25, label %20

20:                                               ; preds = %17
  %21 = getelementptr inbounds nuw i8, ptr %19, i64 8
  %22 = load ptr, ptr %21, align 8
  %23 = getelementptr inbounds nuw i8, ptr %22, i64 24
  %24 = load ptr, ptr %23, align 8
  tail call void %24(ptr noundef nonnull %19) #8
  br label %25

25:                                               ; preds = %20, %17
  %26 = getelementptr inbounds nuw i8, ptr %0, i64 240
  store i8 0, ptr %26, align 8
  %27 = getelementptr inbounds nuw i8, ptr %0, i64 264
  store i64 0, ptr %27, align 8
  %28 = getelementptr inbounds nuw i8, ptr %0, i64 248
  store i64 0, ptr %28, align 8
  %29 = getelementptr inbounds nuw i8, ptr %0, i64 256
  store i32 0, ptr %29, align 8
  %30 = getelementptr inbounds nuw i8, ptr %0, i64 272
  %31 = load ptr, ptr %30, align 8
  %.not20 = icmp eq ptr %31, null
  br i1 %.not20, label %33, label %32

32:                                               ; preds = %25
  tail call void @tuplesort_reset(ptr noundef nonnull %31) #8
  br label %33

33:                                               ; preds = %32, %25
  %34 = getelementptr inbounds nuw i8, ptr %0, i64 280
  %35 = load ptr, ptr %34, align 8
  %.not21 = icmp eq ptr %35, null
  br i1 %.not21, label %37, label %36

36:                                               ; preds = %33
  tail call void @tuplesort_reset(ptr noundef nonnull %35) #8
  br label %37

37:                                               ; preds = %36, %33
  %38 = getelementptr inbounds nuw i8, ptr %3, i64 104
  %39 = load ptr, ptr %38, align 8
  %40 = icmp eq ptr %39, null
  br i1 %40, label %41, label %42

41:                                               ; preds = %37
  tail call void @ExecReScan(ptr noundef nonnull %3) #8
  br label %42

42:                                               ; preds = %41, %37
  ret void
}